Certificate:
    Data:
        Version: 3 (0x2)
        Serial Number:
            5d:0d:b8:28:08:5b:de:b8:d6:0f:71:db:38:c5:5a:fe
        Signature Algorithm: sha256WithRSAEncryption
        Issuer: CN=BLAC Client CA
        Validity
            Not Before: Nov 15 15:54:53 2025 GMT
            Not After : Feb 18 15:54:53 2028 GMT
        Subject: CN=laptop01
        Subject Public Key Info:
            Public Key Algorithm: rsaEncryption
                Public-Key: (2048 bit)
                Modulus:
                    00:a1:bd:80:cd:76:9a:21:0a:41:d5:e2:ea:b1:0f:
                    2e:89:5a:dc:b7:56:a2:2c:21:8b:e3:6f:2c:26:d9:
                    ca:66:51:24:c5:80:2d:9f:88:87:84:65:d7:06:6c:
                    38:b4:0f:76:af:98:ed:fb:1a:e5:d2:58:58:59:6a:
                    25:23:6a:9a:3f:88:3c:0c:cc:43:3f:84:28:7f:4a:
                    dc:b9:6a:f3:cd:71:15:cd:0f:d1:bc:df:20:66:bd:
                    a4:cc:7b:9c:b9:06:5a:ad:9b:2a:dd:84:41:b3:60:
                    af:f9:8f:f7:d4:16:bd:51:59:69:ee:29:41:b9:57:
                    7b:5f:5a:d0:69:5c:9d:81:bf:3b:c4:80:f5:2d:74:
                    d9:65:6b:f8:64:62:ef:8f:76:26:91:cf:d7:cd:49:
                    9b:b7:d2:c2:c0:0b:f1:39:3b:58:24:a9:ec:15:72:
                    b3:55:75:ed:cf:4c:1b:17:9c:3f:de:dd:02:b3:8f:
                    7e:4b:37:98:85:b3:ce:f4:de:48:7b:98:55:22:b4:
                    e1:8d:4f:5e:43:e3:61:2b:db:b0:c7:6e:e9:8c:ad:
                    af:1b:bc:61:56:a6:ee:ab:87:92:6b:98:10:9e:70:
                    fe:3b:66:ae:3e:7f:58:80:c7:b0:72:d4:76:6b:53:
                    ca:3d:48:3c:69:30:7b:6b:6d:e9:a3:c3:0e:aa:10:
                    87:b3
                Exponent: 65537 (0x10001)
        X509v3 extensions:
            X509v3 Basic Constraints: 
                CA:FALSE
            X509v3 Subject Key Identifier: 
                83:96:49:45:09:84:1B:21:7C:FF:CC:C0:EE:84:74:0E:5F:0D:5A:2E
            X509v3 Authority Key Identifier: 
                keyid:9E:C1:B7:FD:03:6F:7D:7C:F4:8D:59:40:CD:08:AB:A5:D7:4D:82:1E
                DirName:/CN=BLAC Client CA
                serial:6A:FB:46:B0:8B:00:D4:C5:5C:41:74:37:4B:C1:19:FB:DD:1D:95:A2
            X509v3 Extended Key Usage: 
                TLS Web Client Authentication
            X509v3 Key Usage: 
                Digital Signature
    Signature Algorithm: sha256WithRSAEncryption
    Signature Value:
        34:0b:bf:f4:af:36:49:b1:0f:06:45:04:a1:91:61:92:88:da:
        f7:f2:65:02:ea:5e:1c:e5:93:9c:b8:a6:3b:55:f5:ad:f5:0f:
        ca:82:d5:98:db:98:e2:07:e3:9a:f4:66:74:e1:67:95:4a:e6:
        26:93:fd:c1:27:23:60:d7:fb:d4:bf:47:bc:b5:3e:16:88:88:
        d3:97:de:ae:b1:8d:93:6c:f8:33:e0:b2:e8:9b:65:f3:b1:c0:
        8e:bc:0a:f2:0b:95:fa:79:8c:9f:05:59:4c:b1:b0:cd:03:63:
        73:bf:91:a3:27:58:e6:08:ee:64:71:a4:c0:73:2d:52:bc:34:
        f3:d9:49:5e:df:b3:0d:d2:9b:53:4b:6e:2b:59:61:03:39:60:
        56:76:6d:e0:92:f6:7d:85:98:c5:b5:8b:80:40:f2:3d:de:ce:
        2f:ab:96:c6:b5:57:1c:e1:57:00:f2:5f:39:ac:c3:48:b3:e7:
        84:6c:1b:2e:34:4f:30:a4:4e:0c:37:39:47:cb:13:0c:7e:85:
        20:3f:32:68:f5:17:b2:db:e5:02:78:22:a7:4d:57:ca:a2:1f:
        d1:23:74:df:06:8c:3c:74:8e:c9:16:4f:fd:47:9d:fb:07:8a:
        8e:fc:31:74:98:68:12:18:e7:91:c2:b9:dd:bf:7c:c8:70:75:
        ac:ed:a2:99
-----BEGIN CERTIFICATE-----
MIIDXDCCAkSgAwIBAgIQXQ24KAhb3rjWD3HbOMVa/jANBgkqhkiG9w0BAQsFADAZ
MRcwFQYDVQQDDA5CTEFDIENsaWVudCBDQTAeFw0yNTExMTUxNTU0NTNaFw0yODAy
MTgxNTU0NTNaMBMxETAPBgNVBAMMCGxhcHRvcDAxMIIBIjANBgkqhkiG9w0BAQEF
AAOCAQ8AMIIBCgKCAQEAob2AzXaaIQpB1eLqsQ8uiVrct1aiLCGL428sJtnKZlEk
xYAtn4iHhGXXBmw4tA92r5jt+xrl0lhYWWolI2qaP4g8DMxDP4Qof0rcuWrzzXEV
zQ/RvN8gZr2kzHucuQZarZsq3YRBs2Cv+Y/31Ba9UVlp7ilBuVd7X1rQaVydgb87
xID1LXTZZWv4ZGLvj3Ymkc/XzUmbt9LCwAvxOTtYJKnsFXKzVXXtz0wbF5w/3t0C
s49+SzeYhbPO9N5Ie5hVIrThjU9eQ+NhK9uwx27pjK2vG7xhVqbuq4eSa5gQnnD+
O2auPn9YgMewctR2a1PKPUg8aTB7a23po8MOqhCHswIDAQABo4GlMIGiMAkGA1Ud
EwQCMAAwHQYDVR0OBBYEFIOWSUUJhBshfP/MwO6EdA5fDVouMFQGA1UdIwRNMEuA
FJ7Bt/0Db3189I1ZQM0Iq6XXTYIeoR2kGzAZMRcwFQYDVQQDDA5CTEFDIENsaWVu
dCBDQYIUavtGsIsA1MVcQXQ3S8EZ+90dlaIwEwYDVR0lBAwwCgYIKwYBBQUHAwIw
CwYDVR0PBAQDAgeAMA0GCSqGSIb3DQEBCwUAA4IBAQA0C7/0rzZJsQ8GRQShkWGS
iNr38mUC6l4c5ZOcuKY7VfWt9Q/KgtWY25jiB+Oa9GZ04WeVSuYmk/3BJyNg1/vU
v0e8tT4WiIjTl96usY2TbPgz4LLom2XzscCOvAryC5X6eYyfBVlMsbDNA2Nzv5Gj
J1jmCO5kcaTAcy1SvDTz2Ule37MN0ptTS24rWWEDOWBWdm3gkvZ9hZjFtYuAQPI9
3s4vq5bGtVcc4VcA8l85rMNIs+eEbBsuNE8wpE4MNzlHyxMMfoUgPzJo9Rey2+UC
eCKnTVfKoh/RI3TfBow8dI7JFk/9R537B4qO/DF0mGgSGOeRwrndv3zIcHWs7aKZ
-----END CERTIFICATE-----
